(dp0
I1
(lp1
F0.0
aF0.012
aF0.036
aF0.042
aF0.084
aF0.142
aF0.214
aF0.284
aF0.356
aF0.392
aF0.428
aF0.476
aF0.522
aF0.618
aF0.76
aF0.76
aF0.76
aF0.76
aF0.76
aF0.76
asI2
(lp2
F0.0
aF0.014
aF0.044
aF0.124
aF0.19
aF0.244
aF0.284
aF0.332
aF0.38
aF0.428
aF0.476
aF0.522
aF0.618
aF0.714
aF0.808
aF0.808
aF0.808
aF0.808
aF0.808
aF0.808
asI3
(lp3
F0.0
aF0.026
aF0.06
aF0.1
aF0.134
aF0.166
aF0.222
aF0.276
aF0.332
aF0.388
aF0.444
aF0.5
aF0.61
aF0.776
aF0.776
aF0.776
aF0.776
aF0.776
aF0.776
aF0.776
asI4
(lp4
F0.04
aF0.094
aF0.16
aF0.214
aF0.24
aF0.276
aF0.32
aF0.332
aF0.388
aF0.444
aF0.5
aF0.554
aF0.666
aF0.832
aF0.832
aF0.832
aF0.832
aF0.832
aF0.832
aF0.832
asI5
(lp5
F0.022
aF0.054
aF0.092
aF0.142
aF0.19
aF0.238
aF0.284
aF0.332
aF0.38
aF0.428
aF0.476
aF0.522
aF0.618
aF0.618
aF0.618
aF0.618
aF0.618
aF0.618
aF0.618
aF0.618
asI6
(lp6
F0.0
aF0.016
aF0.052
aF0.078
aF0.11
aF0.148
aF0.19
aF0.222
aF0.238
aF0.266
aF0.332
aF0.4
aF0.466
aF0.6
aF0.6
aF0.6
aF0.6
aF0.6
aF0.6
aF0.6
asI7
(lp7
F0.014
aF0.044
aF0.086
aF0.124
aF0.166
aF0.208
aF0.24
aF0.276
aF0.332
aF0.388
aF0.444
aF0.5
aF0.61
aF0.61
aF0.61
aF0.61
aF0.61
aF0.61
aF0.61
aF0.61
asI8
(lp8
F0.016
aF0.068
aF0.106
aF0.142
aF0.172
aF0.216
aF0.222
aF0.276
aF0.332
aF0.388
aF0.444
aF0.5
aF0.61
aF0.61
aF0.61
aF0.61
aF0.61
aF0.61
aF0.61
aF0.61
asI9
(lp9
F0.018
aF0.058
aF0.088
aF0.116
aF0.146
aF0.16
aF0.2
aF0.266
aF0.332
aF0.4
aF0.466
aF0.6
aF0.6
aF0.6
aF0.6
aF0.6
aF0.6
aF0.6
aF0.6
aF0.6
asI10
(lp10
F0.0
aF0.018
aF0.052
aF0.076
aF0.1
aF0.12
aF0.15
aF0.166
aF0.2
aF0.266
aF0.332
aF0.4
aF0.532
aF0.532
aF0.532
aF0.532
aF0.532
aF0.532
aF0.532
aF0.532
asI11
(lp11
F0.0
aF0.042
aF0.064
aF0.12
aF0.15
aF0.172
aF0.2
aF0.25
aF0.266
aF0.332
aF0.4
aF0.466
aF0.6
aF0.6
aF0.6
aF0.6
aF0.6
aF0.6
aF0.6
aF0.6
asI12
(lp12
F0.02
aF0.058
aF0.088
aF0.132
aF0.172
aF0.2
aF0.216
aF0.262
aF0.266
aF0.332
aF0.4
aF0.466
aF0.532
aF0.532
aF0.532
aF0.532
aF0.532
aF0.532
aF0.532
aF0.532
asI13
(lp13
F0.0
aF0.022
aF0.064
aF0.074
aF0.11
aF0.148
aF0.184
aF0.216
aF0.25
aF0.312
aF0.332
aF0.416
aF0.5
aF0.75
aF0.75
aF0.75
aF0.75
aF0.75
aF0.75
aF0.75
asI14
(lp14
F0.016
aF0.022
aF0.048
aF0.07
aF0.08
aF0.1
aF0.114
aF0.132
aF0.152
aF0.156
aF0.192
aF0.21
aF0.25
aF0.314
aF0.332
aF0.416
aF0.416
aF0.416
aF0.416
aF0.416
asI15
(lp15
F0.02
aF0.044
aF0.06
aF0.08
aF0.102
aF0.12
aF0.142
aF0.172
aF0.176
aF0.19
aF0.23
aF0.234
aF0.294
aF0.332
aF0.332
aF0.332
aF0.332
aF0.332
aF0.332
aF0.332
asI16
(lp16
F0.022
aF0.07
aF0.106
aF0.124
aF0.15
aF0.186
aF0.2
aF0.25
aF0.312
aF0.332
aF0.416
aF0.416
aF0.416
aF0.416
aF0.416
aF0.416
aF0.416
aF0.416
aF0.416
aF0.416
asI17
(lp17
F0.022
aF0.052
aF0.076
aF0.114
aF0.15
aF0.186
aF0.25
aF0.312
aF0.332
aF0.416
aF0.5
aF0.5
aF0.5
aF0.5
aF0.5
aF0.5
aF0.5
aF0.5
aF0.5
aF0.5
asI18
(lp18
F0.0
aF0.026
aF0.068
aF0.08
aF0.12
aF0.16
aF0.186
aF0.25
aF0.332
aF0.416
aF0.5
aF0.666
aF0.666
aF0.666
aF0.666
aF0.666
aF0.666
aF0.666
aF0.666
aF0.666
asI19
(lp19
F0.0
aF0.026
aF0.06
aF0.08
aF0.12
aF0.16
aF0.19
aF0.25
aF0.332
aF0.416
aF0.582
aF0.582
aF0.582
aF0.582
aF0.582
aF0.582
aF0.582
aF0.582
aF0.582
aF0.582
asI20
(lp20
F0.0
aF0.018
aF0.026
aF0.046
aF0.056
aF0.066
aF0.08
aF0.116
aF0.132
aF0.16
aF0.19
aF0.234
aF0.25
aF0.332
aF0.428
aF0.428
aF0.428
aF0.428
aF0.428
aF0.428
asI21
(lp21
F0.0
aF0.024
aF0.028
aF0.046
aF0.056
aF0.068
aF0.08
aF0.09
aF0.11
aF0.132
aF0.156
aF0.2
aF0.25
aF0.332
aF0.332
aF0.332
aF0.332
aF0.332
aF0.332
aF0.332
asI22
(lp22
F0.024
aF0.03
aF0.06
aF0.08
aF0.102
aF0.136
aF0.142
aF0.176
aF0.23
aF0.284
aF0.332
aF0.384
aF0.554
aF0.554
aF0.554
aF0.554
aF0.554
aF0.554
aF0.554
aF0.554
asI23
(lp23
F0.0
aF0.03
aF0.066
aF0.076
aF0.09
aF0.114
aF0.136
aF0.152
aF0.18
aF0.186
aF0.226
aF0.25
aF0.332
aF0.5
aF0.5
aF0.5
aF0.5
aF0.5
aF0.5
aF0.5
asI24
(lp24
F0.0
aF0.034
aF0.082
aF0.09
aF0.1
aF0.15
aF0.2
aF0.214
aF0.25
aF0.284
aF0.332
aF0.416
aF0.416
aF0.416
aF0.416
aF0.416
aF0.416
aF0.416
aF0.416
aF0.416
asI25
(lp25
F0.0
aF0.044
aF0.124
aF0.142
aF0.214
aF0.374
aF0.5
aF0.5
aF0.5
aF0.5
aF0.5
aF0.5
aF0.5
aF0.5
aF0.5
aF0.5
aF0.5
aF0.5
aF0.5
aF0.5
asI26
(lp26
F0.0
aF0.032
aF0.04
aF0.044
aF0.1
aF0.124
aF0.142
aF0.3
aF0.3
aF0.3
aF0.3
aF0.3
aF0.3
aF0.3
aF0.3
aF0.3
aF0.3
aF0.3
aF0.3
aF0.3
asI27
(lp27
F0.0
aF0.032
aF0.034
aF0.04
aF0.044
aF0.082
aF0.1
aF0.114
aF0.136
aF0.166
aF0.25
aF0.25
aF0.25
aF0.25
aF0.25
aF0.25
aF0.25
aF0.25
aF0.25
aF0.25
asI28
(lp28
F0.0
aF0.034
aF0.038
aF0.04
aF0.044
aF0.076
aF0.09
aF0.124
aF0.15
aF0.186
aF0.214
aF0.332
aF0.332
aF0.332
aF0.332
aF0.332
aF0.332
aF0.332
aF0.332
aF0.332
asI29
(lp29
F0.0
aF0.038
aF0.04
aF0.044
aF0.082
aF0.11
aF0.124
aF0.15
aF0.186
aF0.214
aF0.25
aF0.3
aF0.374
aF0.374
aF0.374
aF0.374
aF0.374
aF0.374
aF0.374
aF0.374
asI30
(lp30
F0.0
aF0.038
aF0.044
aF0.09
aF0.1
aF0.124
aF0.166
aF0.186
aF0.214
aF0.25
aF0.3
aF0.5
aF0.5
aF0.5
aF0.5
aF0.5
aF0.5
aF0.5
aF0.5
aF0.5
asI31
(lp31
F0.0
aF0.04
aF0.044
aF0.1
aF0.11
aF0.124
aF0.214
aF0.3
aF0.5
aF0.5
aF0.5
aF0.5
aF0.5
aF0.5
aF0.5
aF0.5
aF0.5
aF0.5
aF0.5
aF0.5
asI32
(lp32
F0.0
aF0.04
aF0.05
aF0.104
aF0.116
aF0.132
aF0.152
aF0.25
aF0.374
aF0.666
aF0.666
aF0.666
aF0.666
aF0.666
aF0.666
aF0.666
aF0.666
aF0.666
aF0.666
aF0.666
asI33
(lp33
F0.0
aF0.04
aF0.044
aF0.05
aF0.116
aF0.132
aF0.152
aF0.25
aF0.374
aF0.666
aF0.666
aF0.666
aF0.666
aF0.666
aF0.666
aF0.666
aF0.666
aF0.666
aF0.666
aF0.666
asI34
(lp34
F0.0
aF0.036
aF0.042
aF0.05
aF0.08
aF0.1
aF0.132
aF0.152
aF0.23
aF0.23
aF0.23
aF0.23
aF0.23
aF0.23
aF0.23
aF0.23
aF0.23
aF0.23
aF0.23
aF0.23
asI35
(lp35
F0.0
aF0.04
aF0.042
aF0.046
aF0.054
aF0.09
aF0.1
aF0.116
aF0.15
aF0.234
aF0.332
aF0.332
aF0.332
aF0.332
aF0.332
aF0.332
aF0.332
aF0.332
aF0.332
aF0.332
asI36
(lp36
F0.0
aF0.05
aF0.052
aF0.058
aF0.1
aF0.11
aF0.116
aF0.132
aF0.186
aF0.23
aF0.362
aF0.362
aF0.362
aF0.362
aF0.362
aF0.362
aF0.362
aF0.362
aF0.362
aF0.362
asI37
(lp37
F0.0
aF0.052
aF0.054
aF0.11
aF0.124
aF0.132
aF0.152
aF0.18
aF0.25
aF0.3
aF0.3
aF0.3
aF0.3
aF0.3
aF0.3
aF0.3
aF0.3
aF0.3
aF0.3
aF0.3
asI38
(lp38
F0.0
aF0.046
aF0.054
aF0.058
aF0.062
aF0.124
aF0.166
aF0.18
aF0.272
aF0.5
aF0.5
aF0.5
aF0.5
aF0.5
aF0.5
aF0.5
aF0.5
aF0.5
aF0.5
aF0.5
asI39
(lp39
F0.0
aF0.058
aF0.07
aF0.076
aF0.142
aF0.2
aF0.25
aF0.6
aF0.6
aF0.6
aF0.6
aF0.6
aF0.6
aF0.6
aF0.6
aF0.6
aF0.6
aF0.6
aF0.6
aF0.6
asI40
(lp40
F0.0
aF0.058
aF0.062
aF0.076
aF0.166
aF0.222
aF0.332
aF0.332
aF0.332
aF0.332
aF0.332
aF0.332
aF0.332
aF0.332
aF0.332
aF0.332
aF0.332
aF0.332
aF0.332
aF0.332
asI41
(lp41
F0.0
aF0.058
aF0.062
aF0.066
aF0.076
aF0.166
aF0.25
aF0.428
aF0.6
aF0.6
aF0.6
aF0.6
aF0.6
aF0.6
aF0.6
aF0.6
aF0.6
aF0.6
aF0.6
aF0.6
asI42
(lp42
F0.0
aF0.052
aF0.054
aF0.058
aF0.062
aF0.132
aF0.152
aF0.166
aF0.272
aF0.428
aF0.428
aF0.428
aF0.428
aF0.428
aF0.428
aF0.428
aF0.428
aF0.428
aF0.428
aF0.428
asI43
(lp43
F0.0
aF0.058
aF0.07
aF0.076
aF0.166
aF0.222
aF0.222
aF0.222
aF0.222
aF0.222
aF0.222
aF0.222
aF0.222
aF0.222
aF0.222
aF0.222
aF0.222
aF0.222
aF0.222
aF0.222
asI44
(lp44
F0.0
aF0.058
aF0.062
aF0.076
aF0.166
aF0.23
aF0.23
aF0.23
aF0.23
aF0.23
aF0.23
aF0.23
aF0.23
aF0.23
aF0.23
aF0.23
aF0.23
aF0.23
aF0.23
aF0.23
asI45
(lp45
F0.0
aF0.058
aF0.066
aF0.076
aF0.142
aF0.166
aF0.166
aF0.166
aF0.166
aF0.166
aF0.166
aF0.166
aF0.166
aF0.166
aF0.166
aF0.166
aF0.166
aF0.166
aF0.166
aF0.166
asI46
(lp46
F0.0
aF0.062
aF0.07
aF0.124
aF0.166
aF0.18
aF0.18
aF0.18
aF0.18
aF0.18
aF0.18
aF0.18
aF0.18
aF0.18
aF0.18
aF0.18
aF0.18
aF0.18
aF0.18
aF0.18
asI47
(lp47
F0.0
aF0.07
aF0.082
aF0.09
aF0.284
aF0.284
aF0.284
aF0.284
aF0.284
aF0.284
aF0.284
aF0.284
aF0.284
aF0.284
aF0.284
aF0.284
aF0.284
aF0.284
aF0.284
aF0.284
asI48
(lp48
F0.0
aF0.07
aF0.082
aF0.09
aF0.18
aF0.18
aF0.18
aF0.18
aF0.18
aF0.18
aF0.18
aF0.18
aF0.18
aF0.18
aF0.18
aF0.18
aF0.18
aF0.18
aF0.18
aF0.18
asI49
(lp49
F0.0
aF0.054
aF0.066
aF0.07
aF0.076
aF0.23
aF0.23
aF0.23
aF0.23
aF0.23
aF0.23
aF0.23
aF0.23
aF0.23
aF0.23
aF0.23
aF0.23
aF0.23
aF0.23
aF0.23
asI50
(lp50
F0.0
aF0.058
aF0.07
aF0.076
aF0.116
aF0.116
aF0.116
aF0.116
aF0.116
aF0.116
aF0.116
aF0.116
aF0.116
aF0.116
aF0.116
aF0.116
aF0.116
aF0.116
aF0.116
aF0.116
asI51
(lp51
F0.0
aF0.062
aF0.132
aF0.132
aF0.132
aF0.132
aF0.132
aF0.132
aF0.132
aF0.132
aF0.132
aF0.132
aF0.132
aF0.132
aF0.132
aF0.132
aF0.132
aF0.132
aF0.132
aF0.132
asI52
(lp52
F0.0
aF0.062
aF0.066
aF0.166
aF0.166
aF0.166
aF0.166
aF0.166
aF0.166
aF0.166
aF0.166
aF0.166
aF0.166
aF0.166
aF0.166
aF0.166
aF0.166
aF0.166
aF0.166
aF0.166
asI53
(lp53
F0.0
aF0.054
aF0.2
aF0.2
aF0.2
aF0.2
aF0.2
aF0.2
aF0.2
aF0.2
aF0.2
aF0.2
aF0.2
aF0.2
aF0.2
aF0.2
aF0.2
aF0.2
aF0.2
aF0.2
asI54
(lp54
F0.0
aF0.07
aF0.09
aF0.222
aF0.222
aF0.222
aF0.222
aF0.222
aF0.222
aF0.222
aF0.222
aF0.222
aF0.222
aF0.222
aF0.222
aF0.222
aF0.222
aF0.222
aF0.222
aF0.222
asI55
(lp55
F0.0
aF0.09
aF0.09
aF0.09
aF0.09
aF0.09
aF0.09
aF0.09
aF0.09
aF0.09
aF0.09
aF0.09
aF0.09
aF0.09
aF0.09
aF0.09
aF0.09
aF0.09
aF0.09
aF0.09
asI56
(lp56
F0.0
aF0.076
aF0.076
aF0.076
aF0.076
aF0.076
aF0.076
aF0.076
aF0.076
aF0.076
aF0.076
aF0.076
aF0.076
aF0.076
aF0.076
aF0.076
aF0.076
aF0.076
aF0.076
aF0.076
asI57
(lp57
F0.0
aF0.082
aF0.082
aF0.082
aF0.082
aF0.082
aF0.082
aF0.082
aF0.082
aF0.082
aF0.082
aF0.082
aF0.082
aF0.082
aF0.082
aF0.082
aF0.082
aF0.082
aF0.082
aF0.082
asI58
(lp58
F0.0
aF0.09
aF0.09
aF0.09
aF0.09
aF0.09
aF0.09
aF0.09
aF0.09
aF0.09
aF0.09
aF0.09
aF0.09
aF0.09
aF0.09
aF0.09
aF0.09
aF0.09
aF0.09
aF0.09
asI59
(lp59
F0.0
aF0.076
aF0.076
aF0.076
aF0.076
aF0.076
aF0.076
aF0.076
aF0.076
aF0.076
aF0.076
aF0.076
aF0.076
aF0.076
aF0.076
aF0.076
aF0.076
aF0.076
aF0.076
aF0.076
asI60
(lp60
F0.0
aF0.0
aF0.0
aF0.0
aF0.0
aF0.0
aF0.0
aF0.0
aF0.0
aF0.0
aF0.0
aF0.0
aF0.0
aF0.0
aF0.0
aF0.0
aF0.0
aF0.0
aF0.0
aF0.0
asI61
(lp61
F0.0
aF0.0
aF0.0
aF0.0
aF0.0
aF0.0
aF0.0
aF0.0
aF0.0
aF0.0
aF0.0
aF0.0
aF0.0
aF0.0
aF0.0
aF0.0
aF0.0
aF0.0
aF0.0
aF0.0
asI62
(lp62
F0.0
aF0.0
aF0.0
aF0.0
aF0.0
aF0.0
aF0.0
aF0.0
aF0.0
aF0.0
aF0.0
aF0.0
aF0.0
aF0.0
aF0.0
aF0.0
aF0.0
aF0.0
aF0.0
aF0.0
asI63
(lp63
F0.0
aF0.0
aF0.0
aF0.0
aF0.0
aF0.0
aF0.0
aF0.0
aF0.0
aF0.0
aF0.0
aF0.0
aF0.0
aF0.0
aF0.0
aF0.0
aF0.0
aF0.0
aF0.0
aF0.0
as.