(dp0
I1
(lp1
F0.0
aF0.09
aF0.18
aF0.272
aF0.362
aF0.362
aF0.362
aF0.362
aF0.362
aF0.362
aF0.362
aF0.362
aF0.362
aF0.362
aF0.362
aF0.362
aF0.362
aF0.362
aF0.362
aF0.362
asI2
(lp2
F0.25
aF0.5
aF0.75
aF0.75
aF0.75
aF0.75
aF0.75
aF0.75
aF0.75
aF0.75
aF0.75
aF0.75
aF0.75
aF0.75
aF0.75
aF0.75
aF0.75
aF0.75
aF0.75
aF0.75
asI3
(lp3
F0.124
aF0.25
aF0.374
aF0.5
aF0.624
aF0.75
aF0.75
aF0.75
aF0.75
aF0.75
aF0.75
aF0.75
aF0.75
aF0.75
aF0.75
aF0.75
aF0.75
aF0.75
aF0.75
aF0.75
asI4
(lp4
F0.18
aF0.272
aF0.362
aF0.454
aF0.544
aF0.636
aF0.726
aF0.726
aF0.726
aF0.726
aF0.726
aF0.726
aF0.726
aF0.726
aF0.726
aF0.726
aF0.726
aF0.726
aF0.726
aF0.726
asI5
(lp5
F0.132
aF0.2
aF0.266
aF0.332
aF0.4
aF0.466
aF0.532
aF0.666
aF0.666
aF0.666
aF0.666
aF0.666
aF0.666
aF0.666
aF0.666
aF0.666
aF0.666
aF0.666
aF0.666
aF0.666
asI6
(lp6
F0.166
aF0.222
aF0.276
aF0.332
aF0.388
aF0.444
aF0.5
aF0.61
aF0.61
aF0.61
aF0.61
aF0.61
aF0.61
aF0.61
aF0.61
aF0.61
aF0.61
aF0.61
aF0.61
aF0.61
asI7
(lp7
F0.21
aF0.262
aF0.314
aF0.368
aF0.42
aF0.472
aF0.578
aF0.736
aF0.736
aF0.736
aF0.736
aF0.736
aF0.736
aF0.736
aF0.736
aF0.736
aF0.736
aF0.736
aF0.736
aF0.736
asI8
(lp8
F0.19
aF0.238
aF0.284
aF0.332
aF0.38
aF0.428
aF0.476
aF0.522
aF0.618
aF0.618
aF0.618
aF0.618
aF0.618
aF0.618
aF0.618
aF0.618
aF0.618
aF0.618
aF0.618
aF0.618
asI9
(lp9
F0.166
aF0.208
aF0.25
aF0.29
aF0.332
aF0.374
aF0.416
aF0.458
aF0.54
aF0.54
aF0.54
aF0.54
aF0.54
aF0.54
aF0.54
aF0.54
aF0.54
aF0.54
aF0.54
aF0.54
asI10
(lp10
F0.152
aF0.192
aF0.23
aF0.268
aF0.346
aF0.384
aF0.422
aF0.46
aF0.5
aF0.576
aF0.692
aF0.692
aF0.692
aF0.692
aF0.692
aF0.692
aF0.692
aF0.692
aF0.692
aF0.692
asI11
(lp11
F0.37
aF0.406
aF0.48
aF0.518
aF0.628
aF0.702
aF0.702
aF0.702
aF0.702
aF0.702
aF0.702
aF0.702
aF0.702
aF0.702
aF0.702
aF0.702
aF0.702
aF0.702
aF0.702
aF0.702
asI12
(lp12
F0.142
aF0.284
aF0.32
aF0.356
aF0.392
aF0.464
aF0.5
aF0.57
aF0.642
aF0.642
aF0.642
aF0.642
aF0.642
aF0.642
aF0.642
aF0.642
aF0.642
aF0.642
aF0.642
aF0.642
asI13
(lp13
F0.232
aF0.266
aF0.3
aF0.332
aF0.366
aF0.4
aF0.432
aF0.466
aF0.532
aF0.632
aF0.632
aF0.632
aF0.632
aF0.632
aF0.632
aF0.632
aF0.632
aF0.632
aF0.632
aF0.632
asI14
(lp14
F0.16
aF0.224
aF0.258
aF0.29
aF0.322
aF0.354
aF0.386
aF0.418
aF0.45
aF0.516
aF0.644
aF0.644
aF0.644
aF0.644
aF0.644
aF0.644
aF0.644
aF0.644
aF0.644
aF0.644
asI15
(lp15
F0.0
aF0.0
aF0.0
aF0.0
aF0.0
aF0.0
aF0.0
aF0.0
aF0.0
aF0.0
aF0.0
aF0.0
aF0.0
aF0.0
aF0.0
aF0.0
aF0.0
aF0.0
aF0.0
aF0.0
asI16
(lp16
F0.0
aF0.0
aF0.0
aF0.0
aF0.0
aF0.0
aF0.0
aF0.0
aF0.0
aF0.0
aF0.0
aF0.0
aF0.0
aF0.0
aF0.0
aF0.0
aF0.0
aF0.0
aF0.0
aF0.0
asI17
(lp17
F0.234
aF0.264
aF0.264
aF0.264
aF0.264
aF0.264
aF0.264
aF0.264
aF0.264
aF0.264
aF0.264
aF0.264
aF0.264
aF0.264
aF0.264
aF0.264
aF0.264
aF0.264
aF0.264
aF0.264
asI18
(lp18
F0.4
aF0.4
aF0.4
aF0.4
aF0.4
aF0.4
aF0.4
aF0.4
aF0.4
aF0.4
aF0.4
aF0.4
aF0.4
aF0.4
aF0.4
aF0.4
aF0.4
aF0.4
aF0.4
aF0.4
asI19
(lp19
F0.388
aF0.444
aF0.472
aF0.61
aF0.61
aF0.61
aF0.61
aF0.61
aF0.61
aF0.61
aF0.61
aF0.61
aF0.61
aF0.61
aF0.61
aF0.61
aF0.61
aF0.61
aF0.61
aF0.61
asI20
(lp20
F0.27
aF0.54
aF0.62
aF0.62
aF0.62
aF0.62
aF0.62
aF0.62
aF0.62
aF0.62
aF0.62
aF0.62
aF0.62
aF0.62
aF0.62
aF0.62
aF0.62
aF0.62
aF0.62
aF0.62
asI21
(lp21
F0.0
aF0.0
aF0.0
aF0.0
aF0.0
aF0.0
aF0.0
aF0.0
aF0.0
aF0.0
aF0.0
aF0.0
aF0.0
aF0.0
aF0.0
aF0.0
aF0.0
aF0.0
aF0.0
aF0.0
asI22
(lp22
F0.0
aF0.0
aF0.0
aF0.0
aF0.0
aF0.0
aF0.0
aF0.0
aF0.0
aF0.0
aF0.0
aF0.0
aF0.0
aF0.0
aF0.0
aF0.0
aF0.0
aF0.0
aF0.0
aF0.0
asI23
(lp23
F0.0
aF0.0
aF0.0
aF0.0
aF0.0
aF0.0
aF0.0
aF0.0
aF0.0
aF0.0
aF0.0
aF0.0
aF0.0
aF0.0
aF0.0
aF0.0
aF0.0
aF0.0
aF0.0
aF0.0
asI24
(lp24
F0.34
aF0.34
aF0.34
aF0.34
aF0.34
aF0.34
aF0.34
aF0.34
aF0.34
aF0.34
aF0.34
aF0.34
aF0.34
aF0.34
aF0.34
aF0.34
aF0.34
aF0.34
aF0.34
aF0.34
asI25
(lp25
F0.214
aF0.476
aF0.476
aF0.476
aF0.476
aF0.476
aF0.476
aF0.476
aF0.476
aF0.476
aF0.476
aF0.476
aF0.476
aF0.476
aF0.476
aF0.476
aF0.476
aF0.476
aF0.476
aF0.476
asI26
(lp26
F0.232
aF0.44
aF0.44
aF0.44
aF0.44
aF0.44
aF0.44
aF0.44
aF0.44
aF0.44
aF0.44
aF0.44
aF0.44
aF0.44
aF0.44
aF0.44
aF0.44
aF0.44
aF0.44
aF0.44
asI27
(lp27
F0.25
aF0.25
aF0.25
aF0.25
aF0.25
aF0.25
aF0.25
aF0.25
aF0.25
aF0.25
aF0.25
aF0.25
aF0.25
aF0.25
aF0.25
aF0.25
aF0.25
aF0.25
aF0.25
aF0.25
asI28
(lp28
F0.0
aF0.0
aF0.0
aF0.0
aF0.0
aF0.0
aF0.0
aF0.0
aF0.0
aF0.0
aF0.0
aF0.0
aF0.0
aF0.0
aF0.0
aF0.0
aF0.0
aF0.0
aF0.0
aF0.0
asI29
(lp29
F0.0
aF0.0
aF0.0
aF0.0
aF0.0
aF0.0
aF0.0
aF0.0
aF0.0
aF0.0
aF0.0
aF0.0
aF0.0
aF0.0
aF0.0
aF0.0
aF0.0
aF0.0
aF0.0
aF0.0
asI30
(lp30
F0.254
aF0.468
aF0.468
aF0.468
aF0.468
aF0.468
aF0.468
aF0.468
aF0.468
aF0.468
aF0.468
aF0.468
aF0.468
aF0.468
aF0.468
aF0.468
aF0.468
aF0.468
aF0.468
aF0.468
asI31
(lp31
F0.0
aF0.0
aF0.0
aF0.0
aF0.0
aF0.0
aF0.0
aF0.0
aF0.0
aF0.0
aF0.0
aF0.0
aF0.0
aF0.0
aF0.0
aF0.0
aF0.0
aF0.0
aF0.0
aF0.0
asI32
(lp32
F0.0
aF0.0
aF0.0
aF0.0
aF0.0
aF0.0
aF0.0
aF0.0
aF0.0
aF0.0
aF0.0
aF0.0
aF0.0
aF0.0
aF0.0
aF0.0
aF0.0
aF0.0
aF0.0
aF0.0
asI33
(lp33
F0.26
aF0.48
aF0.48
aF0.48
aF0.48
aF0.48
aF0.48
aF0.48
aF0.48
aF0.48
aF0.48
aF0.48
aF0.48
aF0.48
aF0.48
aF0.48
aF0.48
aF0.48
aF0.48
aF0.48
asI34
(lp34
F0.0
aF0.0
aF0.0
aF0.0
aF0.0
aF0.0
aF0.0
aF0.0
aF0.0
aF0.0
aF0.0
aF0.0
aF0.0
aF0.0
aF0.0
aF0.0
aF0.0
aF0.0
aF0.0
aF0.0
asI35
(lp35
F0.0
aF0.0
aF0.0
aF0.0
aF0.0
aF0.0
aF0.0
aF0.0
aF0.0
aF0.0
aF0.0
aF0.0
aF0.0
aF0.0
aF0.0
aF0.0
aF0.0
aF0.0
aF0.0
aF0.0
asI36
(lp36
F0.0
aF0.0
aF0.0
aF0.0
aF0.0
aF0.0
aF0.0
aF0.0
aF0.0
aF0.0
aF0.0
aF0.0
aF0.0
aF0.0
aF0.0
aF0.0
aF0.0
aF0.0
aF0.0
aF0.0
asI37
(lp37
F0.0
aF0.0
aF0.0
aF0.0
aF0.0
aF0.0
aF0.0
aF0.0
aF0.0
aF0.0
aF0.0
aF0.0
aF0.0
aF0.0
aF0.0
aF0.0
aF0.0
aF0.0
aF0.0
aF0.0
asI38
(lp38
F0.0
aF0.0
aF0.0
aF0.0
aF0.0
aF0.0
aF0.0
aF0.0
aF0.0
aF0.0
aF0.0
aF0.0
aF0.0
aF0.0
aF0.0
aF0.0
aF0.0
aF0.0
aF0.0
aF0.0
asI39
(lp39
F0.41
aF0.41
aF0.41
aF0.41
aF0.41
aF0.41
aF0.41
aF0.41
aF0.41
aF0.41
aF0.41
aF0.41
aF0.41
aF0.41
aF0.41
aF0.41
aF0.41
aF0.41
aF0.41
aF0.41
asI40
(lp40
F0.0
aF0.0
aF0.0
aF0.0
aF0.0
aF0.0
aF0.0
aF0.0
aF0.0
aF0.0
aF0.0
aF0.0
aF0.0
aF0.0
aF0.0
aF0.0
aF0.0
aF0.0
aF0.0
aF0.0
asI41
(lp41
F0.0
aF0.0
aF0.0
aF0.0
aF0.0
aF0.0
aF0.0
aF0.0
aF0.0
aF0.0
aF0.0
aF0.0
aF0.0
aF0.0
aF0.0
aF0.0
aF0.0
aF0.0
aF0.0
aF0.0
asI42
(lp42
F0.0
aF0.0
aF0.0
aF0.0
aF0.0
aF0.0
aF0.0
aF0.0
aF0.0
aF0.0
aF0.0
aF0.0
aF0.0
aF0.0
aF0.0
aF0.0
aF0.0
aF0.0
aF0.0
aF0.0
asI43
(lp43
F0.0
aF0.0
aF0.0
aF0.0
aF0.0
aF0.0
aF0.0
aF0.0
aF0.0
aF0.0
aF0.0
aF0.0
aF0.0
aF0.0
aF0.0
aF0.0
aF0.0
aF0.0
aF0.0
aF0.0
asI44
(lp44
F0.0
aF0.0
aF0.0
aF0.0
aF0.0
aF0.0
aF0.0
aF0.0
aF0.0
aF0.0
aF0.0
aF0.0
aF0.0
aF0.0
aF0.0
aF0.0
aF0.0
aF0.0
aF0.0
aF0.0
asI45
(lp45
F0.0
aF0.0
aF0.0
aF0.0
aF0.0
aF0.0
aF0.0
aF0.0
aF0.0
aF0.0
aF0.0
aF0.0
aF0.0
aF0.0
aF0.0
aF0.0
aF0.0
aF0.0
aF0.0
aF0.0
asI46
(lp46
F0.0
aF0.0
aF0.0
aF0.0
aF0.0
aF0.0
aF0.0
aF0.0
aF0.0
aF0.0
aF0.0
aF0.0
aF0.0
aF0.0
aF0.0
aF0.0
aF0.0
aF0.0
aF0.0
aF0.0
asI47
(lp47
F0.0
aF0.0
aF0.0
aF0.0
aF0.0
aF0.0
aF0.0
aF0.0
aF0.0
aF0.0
aF0.0
aF0.0
aF0.0
aF0.0
aF0.0
aF0.0
aF0.0
aF0.0
aF0.0
aF0.0
asI48
(lp48
F0.0
aF0.0
aF0.0
aF0.0
aF0.0
aF0.0
aF0.0
aF0.0
aF0.0
aF0.0
aF0.0
aF0.0
aF0.0
aF0.0
aF0.0
aF0.0
aF0.0
aF0.0
aF0.0
aF0.0
asI49
(lp49
F0.0
aF0.0
aF0.0
aF0.0
aF0.0
aF0.0
aF0.0
aF0.0
aF0.0
aF0.0
aF0.0
aF0.0
aF0.0
aF0.0
aF0.0
aF0.0
aF0.0
aF0.0
aF0.0
aF0.0
asI50
(lp50
F0.0
aF0.0
aF0.0
aF0.0
aF0.0
aF0.0
aF0.0
aF0.0
aF0.0
aF0.0
aF0.0
aF0.0
aF0.0
aF0.0
aF0.0
aF0.0
aF0.0
aF0.0
aF0.0
aF0.0
asI51
(lp51
F0.0
aF0.0
aF0.0
aF0.0
aF0.0
aF0.0
aF0.0
aF0.0
aF0.0
aF0.0
aF0.0
aF0.0
aF0.0
aF0.0
aF0.0
aF0.0
aF0.0
aF0.0
aF0.0
aF0.0
asI52
(lp52
F0.0
aF0.0
aF0.0
aF0.0
aF0.0
aF0.0
aF0.0
aF0.0
aF0.0
aF0.0
aF0.0
aF0.0
aF0.0
aF0.0
aF0.0
aF0.0
aF0.0
aF0.0
aF0.0
aF0.0
asI53
(lp53
F0.0
aF0.0
aF0.0
aF0.0
aF0.0
aF0.0
aF0.0
aF0.0
aF0.0
aF0.0
aF0.0
aF0.0
aF0.0
aF0.0
aF0.0
aF0.0
aF0.0
aF0.0
aF0.0
aF0.0
asI54
(lp54
F0.0
aF0.0
aF0.0
aF0.0
aF0.0
aF0.0
aF0.0
aF0.0
aF0.0
aF0.0
aF0.0
aF0.0
aF0.0
aF0.0
aF0.0
aF0.0
aF0.0
aF0.0
aF0.0
aF0.0
asI55
(lp55
F0.0
aF0.0
aF0.0
aF0.0
aF0.0
aF0.0
aF0.0
aF0.0
aF0.0
aF0.0
aF0.0
aF0.0
aF0.0
aF0.0
aF0.0
aF0.0
aF0.0
aF0.0
aF0.0
aF0.0
asI56
(lp56
F0.0
aF0.0
aF0.0
aF0.0
aF0.0
aF0.0
aF0.0
aF0.0
aF0.0
aF0.0
aF0.0
aF0.0
aF0.0
aF0.0
aF0.0
aF0.0
aF0.0
aF0.0
aF0.0
aF0.0
asI57
(lp57
F0.0
aF0.0
aF0.0
aF0.0
aF0.0
aF0.0
aF0.0
aF0.0
aF0.0
aF0.0
aF0.0
aF0.0
aF0.0
aF0.0
aF0.0
aF0.0
aF0.0
aF0.0
aF0.0
aF0.0
asI58
(lp58
F0.0
aF0.0
aF0.0
aF0.0
aF0.0
aF0.0
aF0.0
aF0.0
aF0.0
aF0.0
aF0.0
aF0.0
aF0.0
aF0.0
aF0.0
aF0.0
aF0.0
aF0.0
aF0.0
aF0.0
asI59
(lp59
F0.0
aF0.0
aF0.0
aF0.0
aF0.0
aF0.0
aF0.0
aF0.0
aF0.0
aF0.0
aF0.0
aF0.0
aF0.0
aF0.0
aF0.0
aF0.0
aF0.0
aF0.0
aF0.0
aF0.0
asI60
(lp60
F0.0
aF0.0
aF0.0
aF0.0
aF0.0
aF0.0
aF0.0
aF0.0
aF0.0
aF0.0
aF0.0
aF0.0
aF0.0
aF0.0
aF0.0
aF0.0
aF0.0
aF0.0
aF0.0
aF0.0
asI61
(lp61
F0.0
aF0.0
aF0.0
aF0.0
aF0.0
aF0.0
aF0.0
aF0.0
aF0.0
aF0.0
aF0.0
aF0.0
aF0.0
aF0.0
aF0.0
aF0.0
aF0.0
aF0.0
aF0.0
aF0.0
asI62
(lp62
F0.0
aF0.0
aF0.0
aF0.0
aF0.0
aF0.0
aF0.0
aF0.0
aF0.0
aF0.0
aF0.0
aF0.0
aF0.0
aF0.0
aF0.0
aF0.0
aF0.0
aF0.0
aF0.0
aF0.0
asI63
(lp63
F0.0
aF0.0
aF0.0
aF0.0
aF0.0
aF0.0
aF0.0
aF0.0
aF0.0
aF0.0
aF0.0
aF0.0
aF0.0
aF0.0
aF0.0
aF0.0
aF0.0
aF0.0
aF0.0
aF0.0
as.