(dp0
I1
(lp1
F0.0
aF0.09
aF0.18
aF0.272
aF0.362
aF0.454
aF0.544
aF0.726
aF0.726
aF0.726
aF0.726
aF0.726
aF0.726
aF0.726
aF0.726
aF0.726
aF0.726
aF0.726
aF0.726
aF0.726
asI2
(lp2
F0.142
aF0.284
aF0.428
aF0.57
aF0.714
aF0.714
aF0.714
aF0.714
aF0.714
aF0.714
aF0.714
aF0.714
aF0.714
aF0.714
aF0.714
aF0.714
aF0.714
aF0.714
aF0.714
aF0.714
asI3
(lp3
F0.07
aF0.142
aF0.214
aF0.284
aF0.356
aF0.428
aF0.5
aF0.57
aF0.642
aF0.714
aF0.856
aF0.856
aF0.856
aF0.856
aF0.856
aF0.856
aF0.856
aF0.856
aF0.856
aF0.856
asI4
(lp4
F0.15
aF0.25
aF0.3
aF0.35
aF0.4
aF0.45
aF0.5
aF0.55
aF0.6
aF0.65
aF0.75
aF0.75
aF0.75
aF0.75
aF0.75
aF0.75
aF0.75
aF0.75
aF0.75
aF0.75
asI5
(lp5
F0.114
aF0.192
aF0.23
aF0.268
aF0.306
aF0.346
aF0.384
aF0.422
aF0.46
aF0.5
aF0.538
aF0.614
aF0.692
aF0.806
aF0.806
aF0.806
aF0.806
aF0.806
aF0.806
aF0.806
asI6
(lp6
F0.06
aF0.15
aF0.212
aF0.272
aF0.302
aF0.332
aF0.362
aF0.392
aF0.424
aF0.454
aF0.484
aF0.514
aF0.574
aF0.636
aF0.726
aF0.726
aF0.726
aF0.726
aF0.726
aF0.726
asI7
(lp7
F0.184
aF0.236
aF0.288
aF0.314
aF0.342
aF0.368
aF0.394
aF0.42
aF0.446
aF0.472
aF0.5
aF0.552
aF0.604
aF0.656
aF0.762
aF0.762
aF0.762
aF0.762
aF0.762
aF0.762
asI8
(lp8
F0.136
aF0.204
aF0.25
aF0.294
aF0.34
aF0.362
aF0.386
aF0.408
aF0.43
aF0.454
aF0.5
aF0.544
aF0.612
aF0.68
aF0.68
aF0.68
aF0.68
aF0.68
aF0.68
aF0.68
asI9
(lp9
F0.14
aF0.2
aF0.24
aF0.28
aF0.32
aF0.34
aF0.36
aF0.4
aF0.42
aF0.44
aF0.48
aF0.52
aF0.58
aF0.64
aF0.64
aF0.64
aF0.64
aF0.64
aF0.64
aF0.64
asI10
(lp10
F0.126
aF0.18
aF0.218
aF0.254
aF0.29
aF0.326
aF0.362
aF0.4
aF0.436
aF0.472
aF0.508
aF0.562
aF0.618
aF0.69
aF0.69
aF0.69
aF0.69
aF0.69
aF0.69
aF0.69
asI11
(lp11
F0.166
aF0.232
aF0.266
aF0.3
aF0.332
aF0.366
aF0.382
aF0.416
aF0.45
aF0.482
aF0.516
aF0.566
aF0.616
aF0.616
aF0.616
aF0.616
aF0.616
aF0.616
aF0.616
aF0.616
asI12
(lp12
F0.168
aF0.214
aF0.246
aF0.276
aF0.306
aF0.322
aF0.352
aF0.384
aF0.414
aF0.446
aF0.492
aF0.522
aF0.568
aF0.614
aF0.614
aF0.614
aF0.614
aF0.614
aF0.614
aF0.614
asI13
(lp13
F0.156
aF0.2
aF0.242
aF0.27
aF0.3
aF0.328
aF0.356
aF0.384
aF0.414
aF0.442
aF0.484
aF0.528
aF0.57
aF0.628
aF0.628
aF0.628
aF0.628
aF0.628
aF0.628
aF0.628
asI14
(lp14
F0.174
aF0.216
aF0.242
aF0.27
aF0.296
aF0.324
aF0.35
aF0.378
aF0.404
aF0.432
aF0.458
aF0.5
aF0.554
aF0.608
aF0.608
aF0.608
aF0.608
aF0.608
aF0.608
aF0.608
asI15
(lp15
F0.192
aF0.23
aF0.256
aF0.282
aF0.306
aF0.332
aF0.358
aF0.384
aF0.41
aF0.434
aF0.46
aF0.5
aF0.538
aF0.576
aF0.652
aF0.652
aF0.652
aF0.652
aF0.652
aF0.652
asI16
(lp16
F0.234
aF0.27
aF0.296
aF0.32
aF0.344
aF0.358
aF0.382
aF0.394
aF0.418
aF0.444
aF0.468
aF0.506
aF0.542
aF0.566
aF0.678
aF0.678
aF0.678
aF0.678
aF0.678
aF0.678
asI17
(lp17
F0.188
aF0.234
aF0.258
aF0.282
aF0.304
aF0.328
aF0.352
aF0.364
aF0.388
aF0.41
aF0.434
aF0.47
aF0.504
aF0.54
aF0.588
aF0.588
aF0.588
aF0.588
aF0.588
aF0.588
asI18
(lp18
F0.178
aF0.212
aF0.246
aF0.268
aF0.292
aF0.314
aF0.336
aF0.358
aF0.382
aF0.404
aF0.438
aF0.47
aF0.504
aF0.55
aF0.55
aF0.55
aF0.55
aF0.55
aF0.55
aF0.55
asI19
(lp19
F0.182
aF0.214
aF0.236
aF0.258
aF0.278
aF0.3
aF0.322
aF0.344
aF0.364
aF0.386
aF0.408
aF0.43
aF0.462
aF0.504
aF0.548
aF0.666
aF0.666
aF0.666
aF0.666
aF0.666
asI20
(lp20
F0.174
aF0.206
aF0.236
aF0.256
aF0.278
aF0.298
aF0.318
aF0.34
aF0.36
aF0.38
aF0.402
aF0.422
aF0.452
aF0.484
aF0.514
aF0.556
aF0.556
aF0.556
aF0.556
aF0.556
asI21
(lp21
F0.168
aF0.206
aF0.236
aF0.266
aF0.286
aF0.306
aF0.326
aF0.346
aF0.366
aF0.386
aF0.414
aF0.434
aF0.464
aF0.494
aF0.524
aF0.564
aF0.564
aF0.564
aF0.564
aF0.564
asI22
(lp22
F0.262
aF0.3
aF0.32
aF0.348
aF0.368
aF0.388
aF0.406
aF0.416
aF0.426
aF0.446
aF0.466
aF0.484
aF0.514
aF0.542
aF0.582
aF0.582
aF0.582
aF0.582
aF0.582
aF0.582
asI23
(lp23
F0.206
aF0.254
aF0.282
aF0.3
aF0.32
aF0.348
aF0.366
aF0.386
aF0.404
aF0.424
aF0.442
aF0.462
aF0.49
aF0.508
aF0.536
aF0.536
aF0.536
aF0.536
aF0.536
aF0.536
asI24
(lp24
F0.2
aF0.236
aF0.262
aF0.29
aF0.308
aF0.326
aF0.354
aF0.372
aF0.4
aF0.418
aF0.436
aF0.454
aF0.472
aF0.49
aF0.508
aF0.536
aF0.536
aF0.536
aF0.536
aF0.536
asI25
(lp25
F0.166
aF0.2
aF0.228
aF0.254
aF0.27
aF0.288
aF0.306
aF0.332
aF0.358
aF0.384
aF0.412
aF0.438
aF0.464
aF0.5
aF0.534
aF0.534
aF0.534
aF0.534
aF0.534
aF0.534
asI26
(lp26
F0.18
aF0.214
aF0.24
aF0.258
aF0.274
aF0.292
aF0.31
aF0.326
aF0.352
aF0.37
aF0.396
aF0.412
aF0.448
aF0.482
aF0.516
aF0.516
aF0.516
aF0.516
aF0.516
aF0.516
asI27
(lp27
F0.22
aF0.244
aF0.27
aF0.288
aF0.304
aF0.322
aF0.346
aF0.364
aF0.38
aF0.398
aF0.422
aF0.448
aF0.474
aF0.508
aF0.566
aF0.566
aF0.566
aF0.566
aF0.566
aF0.566
asI28
(lp28
F0.224
aF0.274
aF0.29
aF0.308
aF0.316
aF0.34
aF0.35
aF0.366
aF0.382
aF0.4
aF0.416
aF0.44
aF0.466
aF0.49
aF0.524
aF0.524
aF0.524
aF0.524
aF0.524
aF0.524
asI29
(lp29
F0.244
aF0.294
aF0.31
aF0.326
aF0.336
aF0.36
aF0.368
aF0.384
aF0.4
aF0.426
aF0.434
aF0.442
aF0.474
aF0.5
aF0.524
aF0.524
aF0.524
aF0.524
aF0.524
aF0.524
asI30
(lp30
F0.24
aF0.266
aF0.298
aF0.314
aF0.338
aF0.354
aF0.37
aF0.394
aF0.402
aF0.418
aF0.434
aF0.442
aF0.482
aF0.556
aF0.556
aF0.556
aF0.556
aF0.556
aF0.556
aF0.556
asI31
(lp31
F0.23
aF0.252
aF0.268
aF0.284
aF0.308
aF0.332
aF0.348
aF0.364
aF0.388
aF0.404
aF0.428
aF0.444
aF0.468
aF0.5
aF0.586
aF0.586
aF0.586
aF0.586
aF0.586
aF0.586
asI32
(lp32
F0.202
aF0.234
aF0.256
aF0.272
aF0.288
aF0.304
aF0.328
aF0.342
aF0.358
aF0.374
aF0.398
aF0.42
aF0.436
aF0.46
aF0.476
aF0.514
aF0.608
aF0.608
aF0.608
aF0.608
asI33
(lp33
F0.23
aF0.268
aF0.284
aF0.306
aF0.33
aF0.36
aF0.368
aF0.384
aF0.4
aF0.414
aF0.43
aF0.446
aF0.46
aF0.476
aF0.506
aF0.506
aF0.506
aF0.506
aF0.506
aF0.506
asI34
(lp34
F0.242
aF0.272
aF0.294
aF0.324
aF0.34
aF0.356
aF0.37
aF0.378
aF0.4
aF0.416
aF0.43
aF0.446
aF0.462
aF0.476
aF0.514
aF0.514
aF0.514
aF0.514
aF0.514
aF0.514
asI35
(lp35
F0.252
aF0.268
aF0.298
aF0.312
aF0.328
aF0.342
aF0.358
aF0.372
aF0.394
aF0.41
aF0.416
aF0.432
aF0.44
aF0.462
aF0.484
aF0.522
aF0.522
aF0.522
aF0.522
aF0.522
asI36
(lp36
F0.22
aF0.25
aF0.278
aF0.3
aF0.33
aF0.352
aF0.366
aF0.382
aF0.396
aF0.404
aF0.418
aF0.448
aF0.47
aF0.506
aF0.566
aF0.566
aF0.566
aF0.566
aF0.566
aF0.566
asI37
(lp37
F0.218
aF0.298
aF0.312
aF0.32
aF0.334
aF0.35
aF0.364
aF0.372
aF0.4
aF0.416
aF0.43
aF0.444
aF0.466
aF0.48
aF0.51
aF0.54
aF0.54
aF0.54
aF0.54
aF0.54
asI38
(lp38
F0.236
aF0.272
aF0.294
aF0.316
aF0.338
aF0.366
aF0.38
aF0.402
aF0.416
aF0.43
aF0.452
aF0.474
aF0.516
aF0.516
aF0.516
aF0.516
aF0.516
aF0.516
aF0.516
aF0.516
asI39
(lp39
F0.254
aF0.268
aF0.29
aF0.318
aF0.34
aF0.354
aF0.36
aF0.374
aF0.39
aF0.404
aF0.418
aF0.424
aF0.432
aF0.438
aF0.46
aF0.488
aF0.566
aF0.566
aF0.566
aF0.566
asI40
(lp40
F0.238
aF0.266
aF0.288
aF0.322
aF0.344
aF0.358
aF0.38
aF0.394
aF0.408
aF0.422
aF0.442
aF0.456
aF0.478
aF0.528
aF0.528
aF0.528
aF0.528
aF0.528
aF0.528
aF0.528
asI41
(lp41
F0.244
aF0.272
aF0.286
aF0.3
aF0.314
aF0.328
aF0.348
aF0.376
aF0.39
aF0.412
aF0.432
aF0.454
aF0.482
aF0.496
aF0.51
aF0.51
aF0.51
aF0.51
aF0.51
aF0.51
asI42
(lp42
F0.25
aF0.262
aF0.276
aF0.29
aF0.318
aF0.34
aF0.354
aF0.374
aF0.394
aF0.416
aF0.444
aF0.464
aF0.492
aF0.492
aF0.492
aF0.492
aF0.492
aF0.492
aF0.492
aF0.492
asI43
(lp43
F0.218
aF0.232
aF0.252
aF0.26
aF0.272
aF0.28
aF0.3
aF0.308
aF0.32
aF0.328
aF0.348
aF0.356
aF0.376
aF0.396
aF0.416
aF0.438
aF0.438
aF0.438
aF0.438
aF0.438
asI44
(lp44
F0.224
aF0.238
aF0.278
aF0.292
aF0.298
aF0.306
aF0.312
aF0.326
aF0.34
aF0.36
aF0.374
aF0.394
aF0.408
aF0.442
aF0.516
aF0.516
aF0.516
aF0.516
aF0.516
aF0.516
asI45
(lp45
F0.236
aF0.282
aF0.316
aF0.336
aF0.35
aF0.364
aF0.378
aF0.39
aF0.404
aF0.418
aF0.424
aF0.478
aF0.56
aF0.56
aF0.56
aF0.56
aF0.56
aF0.56
aF0.56
aF0.56
asI46
(lp46
F0.26
aF0.268
aF0.328
aF0.342
aF0.348
aF0.368
aF0.382
aF0.388
aF0.394
aF0.402
aF0.416
aF0.442
aF0.462
aF0.496
aF0.496
aF0.496
aF0.496
aF0.496
aF0.496
aF0.496
asI47
(lp47
F0.258
aF0.284
aF0.298
aF0.31
aF0.336
aF0.364
aF0.384
aF0.396
aF0.402
aF0.43
aF0.47
aF0.482
aF0.522
aF0.522
aF0.522
aF0.522
aF0.522
aF0.522
aF0.522
aF0.522
asI48
(lp48
F0.268
aF0.282
aF0.308
aF0.314
aF0.328
aF0.342
aF0.354
aF0.368
aF0.388
aF0.4
aF0.406
aF0.414
aF0.434
aF0.466
aF0.492
aF0.492
aF0.492
aF0.492
aF0.492
aF0.492
asI49
(lp49
F0.254
aF0.286
aF0.312
aF0.32
aF0.326
aF0.338
aF0.346
aF0.358
aF0.372
aF0.398
aF0.418
aF0.45
aF0.482
aF0.496
aF0.496
aF0.496
aF0.496
aF0.496
aF0.496
aF0.496
asI50
(lp50
F0.252
aF0.298
aF0.31
aF0.318
aF0.33
aF0.336
aF0.35
aF0.376
aF0.382
aF0.402
aF0.414
aF0.454
aF0.492
aF0.492
aF0.492
aF0.492
aF0.492
aF0.492
aF0.492
aF0.492
asI51
(lp51
F0.232
aF0.328
aF0.334
aF0.374
aF0.386
aF0.392
aF0.4
aF0.418
aF0.458
aF0.47
aF0.49
aF0.49
aF0.49
aF0.49
aF0.49
aF0.49
aF0.49
aF0.49
aF0.49
aF0.49
asI52
(lp52
F0.198
aF0.306
aF0.32
aF0.358
aF0.37
aF0.378
aF0.39
aF0.396
aF0.402
aF0.46
aF0.524
aF0.524
aF0.524
aF0.524
aF0.524
aF0.524
aF0.524
aF0.524
aF0.524
aF0.524
asI53
(lp53
F0.234
aF0.318
aF0.336
aF0.362
aF0.394
aF0.426
aF0.426
aF0.426
aF0.426
aF0.426
aF0.426
aF0.426
aF0.426
aF0.426
aF0.426
aF0.426
aF0.426
aF0.426
aF0.426
aF0.426
asI54
(lp54
F0.2
aF0.238
aF0.25
aF0.27
aF0.288
aF0.314
aF0.32
aF0.326
aF0.338
aF0.364
aF0.37
aF0.388
aF0.396
aF0.402
aF0.402
aF0.402
aF0.402
aF0.402
aF0.402
aF0.402
asI55
(lp55
F0.262
aF0.292
aF0.306
aF0.324
aF0.336
aF0.38
aF0.4
aF0.474
aF0.536
aF0.536
aF0.536
aF0.536
aF0.536
aF0.536
aF0.536
aF0.536
aF0.536
aF0.536
aF0.536
aF0.536
asI56
(lp56
F0.228
aF0.26
aF0.284
aF0.284
aF0.284
aF0.284
aF0.284
aF0.284
aF0.284
aF0.284
aF0.284
aF0.284
aF0.284
aF0.284
aF0.284
aF0.284
aF0.284
aF0.284
aF0.284
aF0.284
asI57
(lp57
F0.208
aF0.382
aF0.382
aF0.382
aF0.382
aF0.382
aF0.382
aF0.382
aF0.382
aF0.382
aF0.382
aF0.382
aF0.382
aF0.382
aF0.382
aF0.382
aF0.382
aF0.382
aF0.382
aF0.382
asI58
(lp58
F0.232
aF0.276
aF0.282
aF0.318
aF0.33
aF0.368
aF0.392
aF0.446
aF0.446
aF0.446
aF0.446
aF0.446
aF0.446
aF0.446
aF0.446
aF0.446
aF0.446
aF0.446
aF0.446
aF0.446
asI59
(lp59
F0.28
aF0.304
aF0.322
aF0.358
aF0.37
aF0.444
aF0.444
aF0.444
aF0.444
aF0.444
aF0.444
aF0.444
aF0.444
aF0.444
aF0.444
aF0.444
aF0.444
aF0.444
aF0.444
aF0.444
asI60
(lp60
F0.35
aF0.35
aF0.35
aF0.35
aF0.35
aF0.35
aF0.35
aF0.35
aF0.35
aF0.35
aF0.35
aF0.35
aF0.35
aF0.35
aF0.35
aF0.35
aF0.35
aF0.35
aF0.35
aF0.35
asI61
(lp61
F0.318
aF0.348
aF0.348
aF0.348
aF0.348
aF0.348
aF0.348
aF0.348
aF0.348
aF0.348
aF0.348
aF0.348
aF0.348
aF0.348
aF0.348
aF0.348
aF0.348
aF0.348
aF0.348
aF0.348
asI62
(lp62
F0.322
aF0.352
aF0.376
aF0.376
aF0.376
aF0.376
aF0.376
aF0.376
aF0.376
aF0.376
aF0.376
aF0.376
aF0.376
aF0.376
aF0.376
aF0.376
aF0.376
aF0.376
aF0.376
aF0.376
asI63
(lp63
F0.278
aF0.326
aF0.368
aF0.368
aF0.368
aF0.368
aF0.368
aF0.368
aF0.368
aF0.368
aF0.368
aF0.368
aF0.368
aF0.368
aF0.368
aF0.368
aF0.368
aF0.368
aF0.368
aF0.368
as.