(dp0
I0
I8
sI1
I7
sI2
I7
sI3
I6
sI4
I6
sI5
I7
sI6
I5
sI7
I6
sI8
I6
sI9
I5
sI10
I5
sI11
I5
sI12
I5
sI13
I4
sI14
I4
sI15
I3
sI16
I4
sI17
I4
sI18
I4
sI19
I4
sI20
I4
sI21
I2
sI22
I3
sI23
I4
sI24
I4
sI25
I2
sI26
I2
sI27
I2
sI28
I2
sI29
I2
sI30
I2
sI31
I2
sI32
I2
sI33
I2
sI34
I2
sI35
I2
sI36
I1
sI37
I2
sI38
I2
sI39
I1
sI40
I1
sI41
I1
sI42
I2
sI43
I1
sI44
I1
sI45
I1
sI46
I2
sI47
I1
sI48
I1
sI49
I1
sI50
I1
sI51
I1
sI52
I1
sI53
I2
sI54
I1
sI55
I1
sI56
I1
sI57
I1
sI58
I1
sI59
I1
sI60
I1
sI61
I1
sI62
I1
sI63
I1
s.