(dp0
I0
I6
sI1
I4
sI2
I5
sI3
I4
sI4
I4
sI5
I3
sI6
I2
sI7
I3
sI8
I3
sI9
I2
sI10
I1
sI11
I1
sI12
I2
sI13
I1
sI14
I1
sI15
I1
sI16
I1
sI17
I1
sI18
I1
sI19
I1
sI20
I1
sI21
I1
sI22
I1
sI23
I1
sI24
I1
sI25
I1
sI26
I1
sI27
I1
sI28
I1
sI29
I1
sI30
I1
sI31
I1
sI32
I1
sI33
I1
sI34
I1
sI35
I1
sI36
I1
sI37
I1
sI38
I1
sI39
I1
sI40
I1
sI41
I1
sI42
I1
sI43
I1
sI44
I1
sI45
I1
sI46
I1
sI47
I1
sI48
I1
sI49
I1
sI50
I1
sI51
I1
sI52
I1
sI53
I1
sI54
I1
sI55
I1
sI56
I1
sI57
I1
sI58
I1
sI59
I1
sI60
I1
sI61
I1
sI62
I1
sI63
I1
s.