(dp0
F0.25
(dp1
S'./woman_orig.bmp'
p2
(dp3
I0
I14
sI1
I19
ssS'./p06_orig.bmp'
p4
(dp5
I0
I16
sI1
I20
ssS'./p04_orig.bmp'
p6
(dp7
I0
I13
sI1
I17
ssS'./p10_orig.bmp'
p8
(dp9
I0
I12
sI1
I14
ssS'./bike_orig.bmp'
p10
(dp11
I0
I10
sI1
I13
ssS'./p01_orig.bmp'
p12
(dp13
I0
I12
sI1
I14
ssS'./p14_orig.bmp'
p14
(dp15
I0
I16
sI1
I21
ssS'./cafe_orig.bmp'
p16
(dp17
I0
I5
sI1
I7
sssF0.5
(dp18
g2
(dp19
I0
I29
sI1
I40
ssg4
(dp20
I0
I38
sI1
I52
ssg6
(dp21
I0
I27
sI1
I38
ssg8
(dp22
I0
I29
sI1
I41
ssg10
(dp23
I0
I22
sI1
I31
ssg12
(dp24
I0
I26
sI1
I35
ssg14
(dp25
I0
I33
sI1
I46
ssg16
(dp26
I0
I10
sI1
I15
sssF0.75
(dp27
g2
(dp28
I0
I46
sI1
I60
ssg4
(dp29
I0
I63
sI1
I73
ssg6
(dp30
I0
I45
sI1
I61
ssg8
(dp31
I0
I52
sI1
I67
ssg10
(dp32
I0
I38
sI1
I52
ssg12
(dp33
I0
I45
sI1
I60
ssg14
(dp34
I0
I55
sI1
I68
ssg16
(dp35
I0
I16
sI1
I23
sssI1
(dp36
g2
(dp37
I0
I63
sI1
I72
ssg4
(dp38
I0
I76
sI1
I82
ssg6
(dp39
I0
I63
sI1
I73
ssg8
(dp40
I0
I69
sI1
I79
ssg10
(dp41
I0
I56
sI1
I68
ssg12
(dp42
I0
I64
sI1
I75
ssg14
(dp43
I0
I70
sI1
I78
ssg16
(dp44
I0
I24
sI1
I33
sssF1.5
(dp45
g2
(dp46
I0
I79
sI1
I83
ssg4
(dp47
I0
I86
sI1
I89
ssg6
(dp48
I0
I81
sI1
I85
ssg8
(dp49
I0
I85
sI1
I89
ssg10
(dp50
I0
I76
sI1
I81
ssg12
(dp51
I0
I82
sI1
I86
ssg14
(dp52
I0
I84
sI1
I88
ssg16
(dp53
I0
I43
sI1
I56
sssF1.25
(dp54
g2
(dp55
I0
I73
sI1
I79
ssg4
(dp56
I0
I82
sI1
I87
ssg6
(dp57
I0
I74
sI1
I81
ssg8
(dp58
I0
I79
sI1
I85
ssg10
(dp59
I0
I68
sI1
I76
ssg12
(dp60
I0
I74
sI1
I82
ssg14
(dp61
I0
I79
sI1
I84
ssg16
(dp62
I0
I33
sI1
I44
sss.